; Function Attrs: mustprogress uwtable
define void @_ZN15VoipCallsDialog28displayFilterCheckBoxToggledEb(ptr nocapture noundef nonnull align 8 dereferenceable(480) %0, i1 noundef zeroext %1) #0 align 2 {
  %3 = getelementptr inbounds i8, ptr %0, i64 64
  %4 = load ptr, ptr %3, align 8
  %5 = tail call noundef zeroext i1 @_ZNK11CaptureFile7isValidEv(ptr noundef nonnull align 8 dereferenceable(48) %4)
  br i1 %5, label %6, label %19

6:                                                ; preds = %2
  %7 = zext i1 %1 to i32
  %8 = getelementptr inbounds i8, ptr %0, i64 420
  store i32 %7, ptr %8, align 4
  %9 = getelementptr inbounds i8, ptr %0, i64 144
  %10 = load ptr, ptr %9, align 8
  tail call void @_ZN18VoipCallsInfoModel14removeAllCallsEv(ptr noundef nonnull align 8 dereferenceable(41) %10)
  %11 = getelementptr inbounds i8, ptr %0, i64 472
  %12 = load ptr, ptr %11, align 8
  %13 = tail call ptr @g_queue_peek_nth_link(ptr noundef %12, i32 noundef 0)
  %.not6.i = icmp eq ptr %13, null
  br i1 %.not6.i, label %_ZN15VoipCallsDialog14removeAllCallsEv.exit, label %.lr.ph.i

.lr.ph.i:                                         ; preds = %6, %.lr.ph.i
  %.07.i = phi ptr [ %16, %.lr.ph.i ], [ %13, %6 ]
  %14 = load ptr, ptr %.07.i, align 8
  tail call void @voip_calls_free_callsinfo(ptr noundef %14)
  %15 = getelementptr inbounds i8, ptr %.07.i, i64 8
  %16 = load ptr, ptr %15, align 8
  %.not.i = icmp eq ptr %16, null
  br i1 %.not.i, label %_ZN15VoipCallsDialog14removeAllCallsEv.exit, label %.lr.ph.i, !llvm.loop !19

_ZN15VoipCallsDialog14removeAllCallsEv.exit:      ; preds = %.lr.ph.i, %6
  %17 = load ptr, ptr %11, align 8
  tail call void @g_queue_clear(ptr noundef %17)
  %18 = load ptr, ptr %3, align 8
  tail call void @_ZN11CaptureFile12retapPacketsEv(ptr noundef nonnull align 8 dereferenceable(48) %18)
  br label %19

19:                                               ; preds = %2, %_ZN15VoipCallsDialog14removeAllCallsEv.exit
  ret void
}